(lp0
(lp1
(lp2
(lp3
I0
aI0
aI1
aa(lp4
I1
aI1
aI0
aa(lp5
I0
aI1
aI1
aa(lp6
I0
aI1
aI1
aa(lp7
I0
aI0
aI0
aaa(lp8
(lp9
I1
aI0
aI1
aa(lp10
I0
aI1
aI1
aa(lp11
I1
aI0
aI0
aa(lp12
I1
aI1
aI0
aa(lp13
I0
aI0
aI1
aaa(lp14
(lp15
I1
aI0
aI1
aa(lp16
I0
aI1
aI1
aa(lp17
I1
aI0
aI0
aa(lp18
I1
aI1
aI1
aa(lp19
I1
aI0
aI0
aaa(lp20
(lp21
I0
aI1
aI1
aa(lp22
I0
aI1
aI1
aa(lp23
I0
aI1
aI0
aa(lp24
I1
aI1
aI1
aa(lp25
I0
aI0
aI1
aaa(lp26
(lp27
I1
aI1
aI0
aa(lp28
I1
aI1
aI1
aa(lp29
I0
aI1
aI1
aa(lp30
I0
aI1
aI0
aa(lp31
I0
aI0
aI0
aaa(lp32
(lp33
I1
aI1
aI0
aa(lp34
I1
aI1
aI1
aa(lp35
I0
aI0
aI1
aa(lp36
I0
aI0
aI1
aa(lp37
I0
aI0
aI0
aaa(lp38
(lp39
I1
aI1
aI0
aa(lp40
I0
aI0
aI1
aa(lp41
I1
aI1
aI1
aa(lp42
I0
aI0
aI0
aa(lp43
I0
aI0
aI0
aaa(lp44
(lp45
I0
aI0
aI1
aa(lp46
I1
aI0
aI0
aa(lp47
I1
aI1
aI0
aa(lp48
I0
aI0
aI0
aa(lp49
I0
aI0
aI0
aaa(lp50
(lp51
I1
aI0
aI0
aa(lp52
I0
aI0
aI0
aa(lp53
I0
aI0
aI0
aa(lp54
I1
aI0
aI0
aa(lp55
I0
aI0
aI0
aaa(lp56
(lp57
I0
aI1
aI0
aa(lp58
I1
aI1
aI0
aa(lp59
I0
aI1
aI0
aa(lp60
I0
aI0
aI0
aa(lp61
I0
aI0
aI0
aaa(lp62
(lp63
I0
aI0
aI0
aa(lp64
I0
aI0
aI1
aa(lp65
I0
aI0
aI0
aa(lp66
I1
aI0
aI1
aa(lp67
I1
aI1
aI0
aaa(lp68
(lp69
I0
aI1
aI1
aa(lp70
I0
aI0
aI1
aa(lp71
I0
aI0
aI1
aa(lp72
I0
aI0
aI0
aa(lp73
I1
aI0
aI1
aaa(lp74
(lp75
I1
aI0
aI1
aa(lp76
I1
aI1
aI0
aa(lp77
I1
aI0
aI0
aa(lp78
I0
aI0
aI0
aa(lp79
I0
aI0
aI0
aaa(lp80
(lp81
I1
aI0
aI1
aa(lp82
I1
aI1
aI1
aa(lp83
I0
aI1
aI0
aa(lp84
I0
aI0
aI0
aa(lp85
I1
aI0
aI1
aaa(lp86
(lp87
I1
aI0
aI0
aa(lp88
I0
aI1
aI1
aa(lp89
I1
aI1
aI1
aa(lp90
I0
aI0
aI0
aa(lp91
I0
aI1
aI0
aaa(lp92
(lp93
I1
aI0
aI0
aa(lp94
I0
aI1
aI0
aa(lp95
I1
aI1
aI1
aa(lp96
I0
aI0
aI0
aa(lp97
I1
aI0
aI0
aaa(lp98
(lp99
I0
aI0
aI1
aa(lp100
I0
aI0
aI1
aa(lp101
I0
aI0
aI0
aa(lp102
I1
aI0
aI0
aa(lp103
I1
aI1
aI1
aaa(lp104
(lp105
I0
aI0
aI1
aa(lp106
I1
aI0
aI0
aa(lp107
I1
aI0
aI0
aa(lp108
I0
aI0
aI1
aa(lp109
I1
aI1
aI1
aaa(lp110
(lp111
I0
aI1
aI0
aa(lp112
I0
aI1
aI0
aa(lp113
I1
aI0
aI0
aa(lp114
I0
aI0
aI1
aa(lp115
I1
aI0
aI0
aaa(lp116
(lp117
I0
aI1
aI0
aa(lp118
I1
aI1
aI1
aa(lp119
I1
aI0
aI0
aa(lp120
I0
aI0
aI1
aa(lp121
I0
aI1
aI0
aaa(lp122
(lp123
I1
aI0
aI1
aa(lp124
I0
aI0
aI1
aa(lp125
I1
aI1
aI1
aa(lp126
I0
aI1
aI0
aa(lp127
I1
aI0
aI0
aaa(lp128
(lp129
I0
aI0
aI1
aa(lp130
I1
aI0
aI0
aa(lp131
I1
aI1
aI1
aa(lp132
I1
aI1
aI0
aa(lp133
I0
aI0
aI1
aaa(lp134
(lp135
I1
aI0
aI0
aa(lp136
I0
aI0
aI1
aa(lp137
I1
aI1
aI1
aa(lp138
I1
aI1
aI0
aa(lp139
I0
aI1
aI0
aaa(lp140
(lp141
I1
aI0
aI0
aa(lp142
I1
aI0
aI0
aa(lp143
I0
aI0
aI1
aa(lp144
I1
aI1
aI1
aa(lp145
I0
aI1
aI1
aaa(lp146
(lp147
I0
aI1
aI1
aa(lp148
I0
aI0
aI1
aa(lp149
I1
aI0
aI0
aa(lp150
I0
aI0
aI1
aa(lp151
I0
aI1
aI1
aaa(lp152
(lp153
I1
aI0
aI0
aa(lp154
I0
aI1
aI0
aa(lp155
I0
aI0
aI1
aa(lp156
I0
aI1
aI0
aa(lp157
I1
aI0
aI1
aaa(lp158
(lp159
I1
aI0
aI1
aa(lp160
I1
aI1
aI0
aa(lp161
I0
aI1
aI0
aa(lp162
I0
aI1
aI0
aa(lp163
I0
aI1
aI0
aaa(lp164
(lp165
I0
aI0
aI1
aa(lp166
I1
aI0
aI0
aa(lp167
I0
aI1
aI1
aa(lp168
I1
aI0
aI1
aa(lp169
I0
aI0
aI1
aaa(lp170
(lp171
I0
aI1
aI0
aa(lp172
I1
aI1
aI0
aa(lp173
I0
aI1
aI0
aa(lp174
I1
aI0
aI1
aa(lp175
I1
aI0
aI0
aaa(lp176
(lp177
I0
aI1
aI1
aa(lp178
I0
aI0
aI1
aa(lp179
I1
aI0
aI1
aa(lp180
I0
aI0
aI1
aa(lp181
I0
aI1
aI0
aaa(lp182
(lp183
I1
aI0
aI0
aa(lp184
I0
aI1
aI1
aa(lp185
I1
aI0
aI1
aa(lp186
I0
aI0
aI1
aa(lp187
I0
aI1
aI0
aaa(lp188
(lp189
I0
aI1
aI0
aa(lp190
I0
aI1
aI0
aa(lp191
I0
aI0
aI1
aa(lp192
I0
aI1
aI1
aa(lp193
I1
aI1
aI0
aaa(lp194
(lp195
I0
aI1
aI1
aa(lp196
I1
aI0
aI0
aa(lp197
I0
aI1
aI0
aa(lp198
I1
aI0
aI1
aa(lp199
I0
aI0
aI1
aaa(lp200
(lp201
I0
aI1
aI1
aa(lp202
I0
aI0
aI0
aa(lp203
I0
aI0
aI1
aa(lp204
I1
aI0
aI0
aa(lp205
I0
aI1
aI1
aaa(lp206
(lp207
I0
aI0
aI1
aa(lp208
I1
aI0
aI1
aa(lp209
I0
aI0
aI1
aa(lp210
I1
aI0
aI0
aa(lp211
I0
aI0
aI0
aaa(lp212
(lp213
I0
aI0
aI0
aa(lp214
I0
aI0
aI1
aa(lp215
I1
aI0
aI1
aa(lp216
I1
aI0
aI1
aa(lp217
I0
aI0
aI1
aaa(lp218
(lp219
I0
aI0
aI0
aa(lp220
I1
aI0
aI1
aa(lp221
I0
aI1
aI0
aa(lp222
I1
aI0
aI0
aa(lp223
I0
aI1
aI0
aaa(lp224
(lp225
I0
aI1
aI0
aa(lp226
I0
aI1
aI0
aa(lp227
I0
aI1
aI1
aa(lp228
I1
aI0
aI0
aa(lp229
I0
aI0
aI0
aaa(lp230
(lp231
I0
aI1
aI0
aa(lp232
I0
aI1
aI0
aa(lp233
I1
aI1
aI0
aa(lp234
I0
aI0
aI1
aa(lp235
I0
aI1
aI0
aaa(lp236
(lp237
I1
aI0
aI0
aa(lp238
I1
aI0
aI1
aa(lp239
I1
aI0
aI0
aa(lp240
I0
aI1
aI1
aa(lp241
I0
aI1
aI0
aaa(lp242
(lp243
I1
aI0
aI0
aa(lp244
I1
aI1
aI0
aa(lp245
I0
aI1
aI0
aa(lp246
I0
aI1
aI0
aa(lp247
I1
aI1
aI0
aaa(lp248
(lp249
I0
aI1
aI1
aa(lp250
I1
aI0
aI1
aa(lp251
I0
aI1
aI0
aa(lp252
I0
aI1
aI1
aa(lp253
I0
aI0
aI1
aaa(lp254
(lp255
I1
aI0
aI1
aa(lp256
I0
aI1
aI1
aa(lp257
I1
aI0
aI1
aa(lp258
I1
aI1
aI0
aa(lp259
I0
aI1
aI0
aaa(lp260
(lp261
I0
aI1
aI1
aa(lp262
I0
aI1
aI1
aa(lp263
I0
aI1
aI1
aa(lp264
I0
aI1
aI1
aa(lp265
I1
aI1
aI0
aaa(lp266
(lp267
I0
aI1
aI1
aa(lp268
I0
aI1
aI1
aa(lp269
I1
aI1
aI0
aa(lp270
I0
aI0
aI0
aa(lp271
I1
aI1
aI0
aaa(lp272
(lp273
I0
aI0
aI0
aa(lp274
I0
aI1
aI1
aa(lp275
I1
aI1
aI0
aa(lp276
I1
aI0
aI0
aa(lp277
I1
aI1
aI0
aaa(lp278
(lp279
I1
aI1
aI0
aa(lp280
I1
aI0
aI0
aa(lp281
I1
aI0
aI1
aa(lp282
I0
aI0
aI0
aa(lp283
I0
aI1
aI0
aaa(lp284
(lp285
I1
aI0
aI0
aa(lp286
I0
aI1
aI1
aa(lp287
I1
aI0
aI1
aa(lp288
I0
aI0
aI0
aa(lp289
I0
aI0
aI1
aaa(lp290
(lp291
I0
aI0
aI1
aa(lp292
I0
aI0
aI1
aa(lp293
I0
aI1
aI1
aa(lp294
I0
aI0
aI1
aa(lp295
I0
aI0
aI0
aaa(lp296
(lp297
I1
aI0
aI0
aa(lp298
I0
aI0
aI0
aa(lp299
I0
aI1
aI0
aa(lp300
I0
aI1
aI0
aa(lp301
I1
aI1
aI0
aaa(lp302
(lp303
I0
aI0
aI0
aa(lp304
I1
aI0
aI1
aa(lp305
I1
aI0
aI0
aa(lp306
I0
aI1
aI0
aa(lp307
I1
aI0
aI0
aaa(lp308
(lp309
I0
aI0
aI0
aa(lp310
I1
aI0
aI0
aa(lp311
I1
aI0
aI1
aa(lp312
I1
aI1
aI0
aa(lp313
I0
aI0
aI1
aaa(lp314
(lp315
I1
aI0
aI1
aa(lp316
I0
aI0
aI0
aa(lp317
I0
aI0
aI1
aa(lp318
I0
aI0
aI1
aa(lp319
I0
aI1
aI0
aaa(lp320
(lp321
I1
aI0
aI1
aa(lp322
I0
aI1
aI0
aa(lp323
I1
aI1
aI1
aa(lp324
I0
aI0
aI0
aa(lp325
I0
aI1
aI0
aaa(lp326
(lp327
I1
aI1
aI0
aa(lp328
I0
aI1
aI1
aa(lp329
I0
aI1
aI0
aa(lp330
I1
aI1
aI1
aa(lp331
I0
aI0
aI1
aaa(lp332
(lp333
I1
aI0
aI0
aa(lp334
I1
aI0
aI1
aa(lp335
I1
aI1
aI1
aa(lp336
I1
aI0
aI1
aa(lp337
I1
aI1
aI0
aaa(lp338
(lp339
I1
aI1
aI1
aa(lp340
I0
aI0
aI0
aa(lp341
I0
aI1
aI0
aa(lp342
I0
aI1
aI1
aa(lp343
I1
aI1
aI0
aaa(lp344
(lp345
I0
aI0
aI0
aa(lp346
I1
aI1
aI0
aa(lp347
I1
aI1
aI1
aa(lp348
I1
aI1
aI0
aa(lp349
I1
aI1
aI0
aaa(lp350
(lp351
I0
aI1
aI1
aa(lp352
I0
aI0
aI0
aa(lp353
I0
aI1
aI1
aa(lp354
I0
aI1
aI1
aa(lp355
I1
aI0
aI1
aaa(lp356
(lp357
I1
aI0
aI1
aa(lp358
I1
aI0
aI1
aa(lp359
I1
aI0
aI0
aa(lp360
I0
aI1
aI1
aa(lp361
I0
aI0
aI0
aaa(lp362
(lp363
I0
aI1
aI1
aa(lp364
I0
aI0
aI0
aa(lp365
I1
aI0
aI1
aa(lp366
I1
aI0
aI1
aa(lp367
I0
aI0
aI1
aaa(lp368
(lp369
I1
aI0
aI1
aa(lp370
I0
aI1
aI1
aa(lp371
I1
aI0
aI0
aa(lp372
I0
aI1
aI0
aa(lp373
I1
aI0
aI1
aaa(lp374
(lp375
I1
aI0
aI0
aa(lp376
I1
aI0
aI1
aa(lp377
I0
aI1
aI1
aa(lp378
I1
aI0
aI0
aa(lp379
I0
aI1
aI1
aaa(lp380
(lp381
I1
aI0
aI0
aa(lp382
I0
aI0
aI1
aa(lp383
I0
aI1
aI1
aa(lp384
I0
aI0
aI1
aa(lp385
I1
aI0
aI1
aaa(lp386
(lp387
I1
aI0
aI0
aa(lp388
I0
aI0
aI1
aa(lp389
I1
aI0
aI1
aa(lp390
I1
aI1
aI0
aa(lp391
I1
aI0
aI1
aaa(lp392
(lp393
I1
aI0
aI0
aa(lp394
I0
aI0
aI0
aa(lp395
I1
aI1
aI0
aa(lp396
I1
aI0
aI0
aa(lp397
I1
aI0
aI1
aaa(lp398
(lp399
I0
aI0
aI0
aa(lp400
I1
aI0
aI0
aa(lp401
I1
aI0
aI1
aa(lp402
I1
aI1
aI0
aa(lp403
I0
aI0
aI0
aaa(lp404
(lp405
I1
aI0
aI1
aa(lp406
I0
aI0
aI0
aa(lp407
I1
aI1
aI0
aa(lp408
I0
aI1
aI0
aa(lp409
I0
aI0
aI0
aaa(lp410
(lp411
I0
aI0
aI0
aa(lp412
I0
aI0
aI1
aa(lp413
I1
aI0
aI1
aa(lp414
I0
aI0
aI0
aa(lp415
I1
aI0
aI1
aaa(lp416
(lp417
I0
aI0
aI0
aa(lp418
I1
aI0
aI0
aa(lp419
I1
aI0
aI1
aa(lp420
I1
aI1
aI0
aa(lp421
I0
aI0
aI0
aaa(lp422
(lp423
I1
aI0
aI1
aa(lp424
I0
aI1
aI0
aa(lp425
I0
aI0
aI0
aa(lp426
I0
aI1
aI0
aa(lp427
I1
aI0
aI1
aaa(lp428
(lp429
I1
aI1
aI0
aa(lp430
I0
aI1
aI0
aa(lp431
I1
aI0
aI0
aa(lp432
I0
aI1
aI1
aa(lp433
I1
aI0
aI0
aaa(lp434
(lp435
I0
aI0
aI1
aa(lp436
I0
aI1
aI1
aa(lp437
I0
aI0
aI1
aa(lp438
I0
aI0
aI0
aa(lp439
I0
aI1
aI0
aaa(lp440
(lp441
I0
aI0
aI1
aa(lp442
I0
aI0
aI1
aa(lp443
I0
aI0
aI0
aa(lp444
I0
aI1
aI1
aa(lp445
I0
aI1
aI0
aaa(lp446
(lp447
I1
aI0
aI0
aa(lp448
I1
aI0
aI0
aa(lp449
I1
aI0
aI0
aa(lp450
I0
aI1
aI0
aa(lp451
I0
aI0
aI0
aaa(lp452
(lp453
I1
aI0
aI0
aa(lp454
I1
aI0
aI0
aa(lp455
I0
aI0
aI0
aa(lp456
I0
aI1
aI0
aa(lp457
I1
aI1
aI0
aaa(lp458
(lp459
I1
aI0
aI0
aa(lp460
I1
aI1
aI0
aa(lp461
I1
aI0
aI0
aa(lp462
I0
aI0
aI1
aa(lp463
I0
aI0
aI0
aaa(lp464
(lp465
I0
aI1
aI0
aa(lp466
I0
aI1
aI1
aa(lp467
I0
aI0
aI1
aa(lp468
I1
aI0
aI0
aa(lp469
I0
aI0
aI1
aaa(lp470
(lp471
I0
aI0
aI1
aa(lp472
I0
aI1
aI0
aa(lp473
I1
aI0
aI0
aa(lp474
I1
aI1
aI0
aa(lp475
I0
aI1
aI0
aaa(lp476
(lp477
I1
aI0
aI0
aa(lp478
I1
aI0
aI0
aa(lp479
I1
aI0
aI0
aa(lp480
I0
aI1
aI0
aa(lp481
I1
aI0
aI1
aaa(lp482
(lp483
I1
aI0
aI0
aa(lp484
I0
aI0
aI1
aa(lp485
I1
aI0
aI1
aa(lp486
I1
aI0
aI0
aa(lp487
I0
aI1
aI0
aaa(lp488
(lp489
I1
aI0
aI1
aa(lp490
I0
aI0
aI1
aa(lp491
I0
aI1
aI0
aa(lp492
I1
aI1
aI0
aa(lp493
I0
aI0
aI1
aaa(lp494
(lp495
I0
aI1
aI1
aa(lp496
I1
aI0
aI1
aa(lp497
I1
aI1
aI0
aa(lp498
I0
aI1
aI0
aa(lp499
I0
aI1
aI0
aaa(lp500
(lp501
I0
aI1
aI1
aa(lp502
I0
aI1
aI1
aa(lp503
I0
aI1
aI1
aa(lp504
I1
aI1
aI0
aa(lp505
I0
aI1
aI0
aaa(lp506
(lp507
I1
aI1
aI0
aa(lp508
I0
aI1
aI1
aa(lp509
I1
aI0
aI1
aa(lp510
I0
aI1
aI1
aa(lp511
I0
aI0
aI0
aaa(lp512
(lp513
I0
aI0
aI0
aa(lp514
I1
aI1
aI0
aa(lp515
I0
aI1
aI1
aa(lp516
I1
aI1
aI0
aa(lp517
I1
aI1
aI0
aaa(lp518
(lp519
I1
aI1
aI1
aa(lp520
I0
aI0
aI0
aa(lp521
I0
aI1
aI1
aa(lp522
I1
aI0
aI1
aa(lp523
I1
aI0
aI1
aaa(lp524
(lp525
I1
aI0
aI1
aa(lp526
I1
aI0
aI1
aa(lp527
I1
aI1
aI1
aa(lp528
I0
aI0
aI0
aa(lp529
I1
aI0
aI1
aaa(lp530
(lp531
I0
aI0
aI0
aa(lp532
I0
aI1
aI1
aa(lp533
I1
aI1
aI1
aa(lp534
I1
aI0
aI1
aa(lp535
I1
aI0
aI0
aaa(lp536
(lp537
I0
aI0
aI0
aa(lp538
I0
aI1
aI1
aa(lp539
I1
aI0
aI0
aa(lp540
I1
aI1
aI1
aa(lp541
I1
aI0
aI1
aaa(lp542
(lp543
I0
aI0
aI0
aa(lp544
I1
aI1
aI0
aa(lp545
I0
aI1
aI0
aa(lp546
I1
aI1
aI1
aa(lp547
I0
aI0
aI1
aaa(lp548
(lp549
I0
aI1
aI0
aa(lp550
I0
aI1
aI1
aa(lp551
I0
aI1
aI0
aa(lp552
I0
aI0
aI0
aa(lp553
I0
aI1
aI1
aaa(lp554
(lp555
I1
aI0
aI0
aa(lp556
I1
aI0
aI1
aa(lp557
I1
aI0
aI1
aa(lp558
I0
aI0
aI0
aa(lp559
I0
aI0
aI1
aaa(lp560
(lp561
I1
aI0
aI1
aa(lp562
I1
aI0
aI0
aa(lp563
I0
aI1
aI0
aa(lp564
I0
aI0
aI0
aa(lp565
I1
aI0
aI1
aaa(lp566
(lp567
I1
aI1
aI1
aa(lp568
I1
aI1
aI0
aa(lp569
I0
aI1
aI0
aa(lp570
I0
aI1
aI0
aa(lp571
I1
aI1
aI0
aaa(lp572
(lp573
I1
aI1
aI0
aa(lp574
I0
aI1
aI0
aa(lp575
I1
aI1
aI0
aa(lp576
I1
aI1
aI1
aa(lp577
I1
aI1
aI1
aaa(lp578
(lp579
I0
aI1
aI0
aa(lp580
I1
aI0
aI0
aa(lp581
I0
aI1
aI1
aa(lp582
I1
aI1
aI1
aa(lp583
I1
aI1
aI1
aaa(lp584
(lp585
I1
aI1
aI1
aa(lp586
I1
aI0
aI1
aa(lp587
I1
aI1
aI1
aa(lp588
I1
aI0
aI0
aa(lp589
I1
aI0
aI0
aaa(lp590
(lp591
I1
aI1
aI1
aa(lp592
I0
aI1
aI0
aa(lp593
I0
aI1
aI1
aa(lp594
I1
aI1
aI1
aa(lp595
I1
aI0
aI0
aaa(lp596
(lp597
I0
aI1
aI0
aa(lp598
I0
aI1
aI1
aa(lp599
I0
aI1
aI0
aa(lp600
I0
aI1
aI0
aa(lp601
I1
aI1
aI1
aaa(lp602
(lp603
I1
aI1
aI0
aa(lp604
I1
aI0
aI1
aa(lp605
I1
aI0
aI0
aa(lp606
I1
aI0
aI0
aa(lp607
I0
aI1
aI0
aaa(lp608
(lp609
I0
aI1
aI0
aa(lp610
I1
aI1
aI1
aa(lp611
I1
aI0
aI1
aa(lp612
I0
aI1
aI0
aa(lp613
I1
aI0
aI1
aaa(lp614
(lp615
I1
aI1
aI0
aa(lp616
I1
aI0
aI0
aa(lp617
I0
aI1
aI0
aa(lp618
I1
aI1
aI1
aa(lp619
I1
aI1
aI0
aaa(lp620
(lp621
I0
aI0
aI0
aa(lp622
I1
aI0
aI0
aa(lp623
I1
aI1
aI1
aa(lp624
I1
aI0
aI1
aa(lp625
I0
aI1
aI1
aaa(lp626
(lp627
I1
aI1
aI1
aa(lp628
I0
aI1
aI1
aa(lp629
I1
aI1
aI0
aa(lp630
I1
aI1
aI0
aa(lp631
I0
aI0
aI0
aaa(lp632
(lp633
I1
aI0
aI1
aa(lp634
I0
aI1
aI1
aa(lp635
I0
aI0
aI0
aa(lp636
I1
aI1
aI1
aa(lp637
I1
aI1
aI1
aaa(lp638
(lp639
I1
aI1
aI0
aa(lp640
I0
aI1
aI0
aa(lp641
I0
aI0
aI0
aa(lp642
I0
aI1
aI1
aa(lp643
I1
aI1
aI1
aaa(lp644
(lp645
I1
aI0
aI1
aa(lp646
I1
aI1
aI1
aa(lp647
I0
aI0
aI0
aa(lp648
I0
aI0
aI1
aa(lp649
I0
aI1
aI1
aaa(lp650
(lp651
I0
aI1
aI0
aa(lp652
I1
aI1
aI1
aa(lp653
I0
aI0
aI1
aa(lp654
I1
aI0
aI1
aa(lp655
I1
aI0
aI1
aaa(lp656
(lp657
I0
aI0
aI0
aa(lp658
I1
aI1
aI1
aa(lp659
I1
aI0
aI1
aa(lp660
I1
aI0
aI0
aa(lp661
I0
aI0
aI1
aaa(lp662
(lp663
I0
aI0
aI0
aa(lp664
I1
aI0
aI0
aa(lp665
I1
aI0
aI0
aa(lp666
I1
aI0
aI1
aa(lp667
I0
aI1
aI0
aaa(lp668
(lp669
I0
aI0
aI1
aa(lp670
I0
aI0
aI0
aa(lp671
I1
aI0
aI1
aa(lp672
I1
aI0
aI1
aa(lp673
I1
aI0
aI0
aaa(lp674
(lp675
I1
aI0
aI0
aa(lp676
I0
aI0
aI1
aa(lp677
I0
aI0
aI0
aa(lp678
I0
aI1
aI1
aa(lp679
I1
aI1
aI1
aaa(lp680
(lp681
I0
aI1
aI1
aa(lp682
I0
aI0
aI1
aa(lp683
I0
aI1
aI1
aa(lp684
I0
aI0
aI0
aa(lp685
I1
aI1
aI1
aaa(lp686
(lp687
I0
aI1
aI0
aa(lp688
I0
aI1
aI1
aa(lp689
I1
aI1
aI0
aa(lp690
I1
aI1
aI1
aa(lp691
I1
aI0
aI1
aaa(lp692
(lp693
I0
aI1
aI1
aa(lp694
I1
aI1
aI1
aa(lp695
I0
aI1
aI1
aa(lp696
I1
aI1
aI1
aa(lp697
I1
aI0
aI1
aaa(lp698
(lp699
I1
aI1
aI1
aa(lp700
I1
aI1
aI0
aa(lp701
I0
aI1
aI1
aa(lp702
I1
aI1
aI1
aa(lp703
I1
aI0
aI1
aaa(lp704
(lp705
I1
aI1
aI1
aa(lp706
I1
aI0
aI1
aa(lp707
I1
aI1
aI1
aa(lp708
I0
aI1
aI1
aa(lp709
I1
aI1
aI0
aaa(lp710
(lp711
I1
aI1
aI1
aa(lp712
I1
aI1
aI1
aa(lp713
I1
aI1
aI0
aa(lp714
I0
aI1
aI1
aa(lp715
I1
aI0
aI0
aaa(lp716
(lp717
I0
aI0
aI1
aa(lp718
I0
aI1
aI0
aa(lp719
I0
aI1
aI1
aa(lp720
I1
aI1
aI1
aa(lp721
I1
aI1
aI1
aaa(lp722
(lp723
I1
aI0
aI0
aa(lp724
I1
aI1
aI1
aa(lp725
I1
aI0
aI0
aa(lp726
I1
aI1
aI1
aa(lp727
I0
aI1
aI1
aaa(lp728
(lp729
I1
aI1
aI1
aa(lp730
I0
aI0
aI1
aa(lp731
I0
aI0
aI0
aa(lp732
I1
aI1
aI1
aa(lp733
I0
aI1
aI0
aaa(lp734
(lp735
I0
aI0
aI1
aa(lp736
I1
aI1
aI1
aa(lp737
I1
aI0
aI0
aa(lp738
I0
aI0
aI0
aa(lp739
I0
aI1
aI0
aaa(lp740
(lp741
I0
aI0
aI0
aa(lp742
I0
aI0
aI1
aa(lp743
I1
aI1
aI1
aa(lp744
I0
aI1
aI0
aa(lp745
I1
aI0
aI0
aaa(lp746
(lp747
I1
aI0
aI0
aa(lp748
I0
aI1
aI0
aa(lp749
I1
aI1
aI0
aa(lp750
I0
aI0
aI0
aa(lp751
I1
aI1
aI1
aaa(lp752
(lp753
I0
aI1
aI1
aa(lp754
I1
aI0
aI0
aa(lp755
I0
aI0
aI0
aa(lp756
I0
aI1
aI0
aa(lp757
I1
aI1
aI0
aaa(lp758
(lp759
I1
aI1
aI0
aa(lp760
I0
aI0
aI1
aa(lp761
I1
aI0
aI1
aa(lp762
I1
aI1
aI1
aa(lp763
I0
aI1
aI0
aaa(lp764
(lp765
I0
aI1
aI1
aa(lp766
I1
aI1
aI1
aa(lp767
I0
aI0
aI1
aa(lp768
I0
aI1
aI1
aa(lp769
I1
aI0
aI1
aaa(lp770
(lp771
I1
aI1
aI1
aa(lp772
I1
aI0
aI1
aa(lp773
I1
aI0
aI1
aa(lp774
I0
aI0
aI0
aa(lp775
I1
aI0
aI1
aaa(lp776
(lp777
I0
aI0
aI0
aa(lp778
I0
aI1
aI0
aa(lp779
I1
aI0
aI1
aa(lp780
I1
aI1
aI0
aa(lp781
I1
aI1
aI1
aaa(lp782
(lp783
I0
aI1
aI1
aa(lp784
I0
aI0
aI0
aa(lp785
I1
aI1
aI1
aa(lp786
I1
aI0
aI0
aa(lp787
I0
aI0
aI0
aaa(lp788
(lp789
I0
aI0
aI0
aa(lp790
I0
aI1
aI0
aa(lp791
I1
aI1
aI0
aa(lp792
I0
aI1
aI0
aa(lp793
I0
aI0
aI0
aaa(lp794
(lp795
I0
aI0
aI0
aa(lp796
I0
aI0
aI0
aa(lp797
I0
aI0
aI1
aa(lp798
I0
aI0
aI0
aa(lp799
I0
aI1
aI0
aaa(lp800
(lp801
I0
aI1
aI0
aa(lp802
I0
aI1
aI0
aa(lp803
I0
aI0
aI0
aa(lp804
I0
aI1
aI0
aa(lp805
I0
aI0
aI0
aaa(lp806
(lp807
I0
aI0
aI1
aa(lp808
I0
aI1
aI0
aa(lp809
I1
aI0
aI1
aa(lp810
I0
aI0
aI0
aa(lp811
I0
aI0
aI0
aaa(lp812
(lp813
I0
aI0
aI1
aa(lp814
I0
aI0
aI0
aa(lp815
I0
aI1
aI1
aa(lp816
I0
aI0
aI0
aa(lp817
I0
aI1
aI0
aaa(lp818
(lp819
I0
aI0
aI0
aa(lp820
I0
aI0
aI0
aa(lp821
I0
aI0
aI0
aa(lp822
I1
aI1
aI0
aa(lp823
I0
aI0
aI1
aaa(lp824
(lp825
I0
aI0
aI0
aa(lp826
I0
aI1
aI0
aa(lp827
I0
aI1
aI0
aa(lp828
I0
aI1
aI1
aa(lp829
I0
aI0
aI0
aaa(lp830
(lp831
I1
aI0
aI1
aa(lp832
I0
aI0
aI0
aa(lp833
I1
aI0
aI1
aa(lp834
I0
aI0
aI0
aa(lp835
I0
aI1
aI0
aaa(lp836
(lp837
I0
aI1
aI0
aa(lp838
I1
aI1
aI0
aa(lp839
I0
aI0
aI0
aa(lp840
I0
aI0
aI0
aa(lp841
I1
aI0
aI1
aaa(lp842
(lp843
I1
aI0
aI1
aa(lp844
I1
aI0
aI1
aa(lp845
I0
aI0
aI0
aa(lp846
I0
aI1
aI1
aa(lp847
I0
aI1
aI0
aaa(lp848
(lp849
I0
aI1
aI1
aa(lp850
I1
aI0
aI0
aa(lp851
I1
aI0
aI1
aa(lp852
I1
aI1
aI1
aa(lp853
I1
aI1
aI0
aaa(lp854
(lp855
I1
aI0
aI1
aa(lp856
I0
aI0
aI1
aa(lp857
I1
aI1
aI1
aa(lp858
I1
aI0
aI1
aa(lp859
I1
aI0
aI1
aaa(lp860
(lp861
I0
aI1
aI1
aa(lp862
I0
aI1
aI1
aa(lp863
I0
aI0
aI1
aa(lp864
I1
aI1
aI1
aa(lp865
I1
aI0
aI1
aaa(lp866
(lp867
I1
aI1
aI1
aa(lp868
I0
aI1
aI1
aa(lp869
I1
aI1
aI0
aa(lp870
I1
aI0
aI0
aa(lp871
I0
aI0
aI1
aaa(lp872
(lp873
I0
aI0
aI1
aa(lp874
I1
aI1
aI1
aa(lp875
I0
aI0
aI1
aa(lp876
I1
aI0
aI1
aa(lp877
I1
aI1
aI1
aaa(lp878
(lp879
I1
aI0
aI0
aa(lp880
I1
aI1
aI1
aa(lp881
I1
aI1
aI0
aa(lp882
I1
aI0
aI1
aa(lp883
I1
aI0
aI0
aaa(lp884
(lp885
I1
aI1
aI0
aa(lp886
I1
aI0
aI1
aa(lp887
I1
aI1
aI1
aa(lp888
I0
aI0
aI1
aa(lp889
I1
aI0
aI0
aaa(lp890
(lp891
I1
aI0
aI0
aa(lp892
I1
aI1
aI0
aa(lp893
I0
aI1
aI0
aa(lp894
I1
aI0
aI1
aa(lp895
I1
aI1
aI1
aaa(lp896
(lp897
I0
aI1
aI0
aa(lp898
I1
aI0
aI1
aa(lp899
I1
aI1
aI0
aa(lp900
I1
aI1
aI1
aa(lp901
I1
aI1
aI0
aaa(lp902
(lp903
I1
aI0
aI1
aa(lp904
I1
aI0
aI0
aa(lp905
I1
aI0
aI1
aa(lp906
I1
aI1
aI0
aa(lp907
I1
aI0
aI1
aaa(lp908
(lp909
I1
aI1
aI1
aa(lp910
I1
aI0
aI1
aa(lp911
I1
aI0
aI1
aa(lp912
I1
aI1
aI0
aa(lp913
I1
aI0
aI0
aaa(lp914
(lp915
I0
aI1
aI1
aa(lp916
I1
aI1
aI0
aa(lp917
I1
aI0
aI1
aa(lp918
I0
aI0
aI1
aa(lp919
I1
aI1
aI1
aaa(lp920
(lp921
I1
aI1
aI0
aa(lp922
I0
aI0
aI1
aa(lp923
I0
aI1
aI0
aa(lp924
I1
aI1
aI1
aa(lp925
I1
aI1
aI0
aaa(lp926
(lp927
I0
aI1
aI0
aa(lp928
I1
aI1
aI1
aa(lp929
I0
aI1
aI0
aa(lp930
I1
aI0
aI1
aa(lp931
I1
aI1
aI0
aaa(lp932
(lp933
I1
aI1
aI1
aa(lp934
I1
aI1
aI0
aa(lp935
I1
aI0
aI0
aa(lp936
I1
aI0
aI0
aa(lp937
I0
aI1
aI1
aaa(lp938
(lp939
I0
aI1
aI1
aa(lp940
I0
aI1
aI0
aa(lp941
I0
aI0
aI1
aa(lp942
I1
aI1
aI0
aa(lp943
I0
aI0
aI1
aaa(lp944
(lp945
I0
aI0
aI1
aa(lp946
I0
aI0
aI1
aa(lp947
I1
aI1
aI1
aa(lp948
I1
aI0
aI1
aa(lp949
I1
aI0
aI1
aaa(lp950
(lp951
I0
aI1
aI0
aa(lp952
I0
aI1
aI0
aa(lp953
I1
aI1
aI1
aa(lp954
I1
aI1
aI0
aa(lp955
I0
aI1
aI1
aaa(lp956
(lp957
I1
aI0
aI1
aa(lp958
I0
aI0
aI1
aa(lp959
I1
aI1
aI0
aa(lp960
I1
aI1
aI1
aa(lp961
I1
aI0
aI0
aaa(lp962
(lp963
I1
aI0
aI0
aa(lp964
I0
aI1
aI1
aa(lp965
I1
aI1
aI1
aa(lp966
I1
aI1
aI1
aa(lp967
I0
aI1
aI0
aaa(lp968
(lp969
I1
aI1
aI1
aa(lp970
I1
aI1
aI1
aa(lp971
I1
aI0
aI1
aa(lp972
I0
aI0
aI0
aa(lp973
I1
aI0
aI0
aaa(lp974
(lp975
I0
aI0
aI1
aa(lp976
I0
aI1
aI1
aa(lp977
I0
aI0
aI1
aa(lp978
I1
aI1
aI1
aa(lp979
I0
aI0
aI0
aaa(lp980
(lp981
I1
aI1
aI1
aa(lp982
I0
aI0
aI0
aa(lp983
I1
aI0
aI1
aa(lp984
I1
aI0
aI0
aa(lp985
I0
aI1
aI1
aaa(lp986
(lp987
I1
aI1
aI1
aa(lp988
I1
aI1
aI1
aa(lp989
I0
aI1
aI1
aa(lp990
I0
aI0
aI0
aa(lp991
I1
aI0
aI0
aaa(lp992
(lp993
I0
aI1
aI1
aa(lp994
I1
aI0
aI0
aa(lp995
I0
aI1
aI1
aa(lp996
I0
aI0
aI0
aa(lp997
I1
aI1
aI1
aaa(lp998
(lp999
I0
aI1
aI1
aa(lp1000
I1
aI1
aI1
aa(lp1001
I1
aI0
aI0
aa(lp1002
I1
aI0
aI1
aa(lp1003
I1
aI1
aI0
aaa(lp1004
(lp1005
I1
aI1
aI1
aa(lp1006
I1
aI1
aI0
aa(lp1007
I1
aI1
aI0
aa(lp1008
I0
aI1
aI1
aa(lp1009
I0
aI1
aI0
aaa(lp1010
(lp1011
I0
aI0
aI1
aa(lp1012
I0
aI1
aI1
aa(lp1013
I1
aI1
aI0
aa(lp1014
I1
aI1
aI1
aa(lp1015
I1
aI1
aI0
aaa(lp1016
(lp1017
I0
aI1
aI1
aa(lp1018
I1
aI0
aI1
aa(lp1019
I1
aI0
aI0
aa(lp1020
I0
aI1
aI1
aa(lp1021
I0
aI1
aI1
aaa(lp1022
(lp1023
I1
aI1
aI0
aa(lp1024
I1
aI1
aI1
aa(lp1025
I1
aI0
aI1
aa(lp1026
I1
aI0
aI1
aa(lp1027
I1
aI0
aI0
aaa(lp1028
(lp1029
I1
aI0
aI1
aa(lp1030
I1
aI1
aI1
aa(lp1031
I1
aI0
aI1
aa(lp1032
I1
aI0
aI0
aa(lp1033
I0
aI1
aI0
aaa(lp1034
(lp1035
I1
aI1
aI0
aa(lp1036
I1
aI0
aI1
aa(lp1037
I0
aI1
aI1
aa(lp1038
I1
aI1
aI1
aa(lp1039
I0
aI0
aI1
aaa(lp1040
(lp1041
I1
aI1
aI0
aa(lp1042
I1
aI0
aI0
aa(lp1043
I1
aI1
aI1
aa(lp1044
I0
aI1
aI1
aa(lp1045
I0
aI1
aI0
aaa(lp1046
(lp1047
I0
aI1
aI0
aa(lp1048
I1
aI1
aI0
aa(lp1049
I1
aI1
aI1
aa(lp1050
I1
aI0
aI1
aa(lp1051
I0
aI0
aI1
aaa(lp1052
(lp1053
I0
aI1
aI1
aa(lp1054
I0
aI1
aI0
aa(lp1055
I0
aI1
aI0
aa(lp1056
I0
aI1
aI1
aa(lp1057
I0
aI0
aI1
aaa(lp1058
(lp1059
I1
aI0
aI0
aa(lp1060
I1
aI0
aI1
aa(lp1061
I0
aI1
aI1
aa(lp1062
I0
aI1
aI1
aa(lp1063
I0
aI1
aI0
aaa(lp1064
(lp1065
I1
aI1
aI0
aa(lp1066
I1
aI1
aI0
aa(lp1067
I0
aI0
aI1
aa(lp1068
I1
aI1
aI0
aa(lp1069
I0
aI0
aI1
aaa(lp1070
(lp1071
I0
aI1
aI0
aa(lp1072
I1
aI1
aI0
aa(lp1073
I0
aI1
aI1
aa(lp1074
I0
aI1
aI1
aa(lp1075
I1
aI1
aI0
aaa(lp1076
(lp1077
I1
aI0
aI1
aa(lp1078
I0
aI1
aI1
aa(lp1079
I0
aI0
aI0
aa(lp1080
I0
aI0
aI1
aa(lp1081
I1
aI0
aI1
aaa(lp1082
(lp1083
I0
aI0
aI0
aa(lp1084
I1
aI0
aI0
aa(lp1085
I1
aI0
aI1
aa(lp1086
I1
aI1
aI0
aa(lp1087
I0
aI1
aI1
aaa(lp1088
(lp1089
I1
aI1
aI0
aa(lp1090
I0
aI0
aI0
aa(lp1091
I1
aI1
aI1
aa(lp1092
I0
aI0
aI1
aa(lp1093
I1
aI0
aI1
aaa(lp1094
(lp1095
I1
aI1
aI1
aa(lp1096
I0
aI0
aI0
aa(lp1097
I1
aI0
aI1
aa(lp1098
I1
aI1
aI1
aa(lp1099
I1
aI0
aI0
aaa(lp1100
(lp1101
I1
aI1
aI0
aa(lp1102
I1
aI1
aI1
aa(lp1103
I0
aI0
aI0
aa(lp1104
I1
aI1
aI1
aa(lp1105
I1
aI0
aI0
aaa(lp1106
(lp1107
I1
aI1
aI0
aa(lp1108
I1
aI1
aI1
aa(lp1109
I1
aI0
aI1
aa(lp1110
I0
aI1
aI0
aa(lp1111
I1
aI1
aI1
aaa(lp1112
(lp1113
I1
aI1
aI1
aa(lp1114
I0
aI0
aI1
aa(lp1115
I1
aI1
aI0
aa(lp1116
I1
aI1
aI1
aa(lp1117
I1
aI0
aI1
aaa(lp1118
(lp1119
I0
aI0
aI0
aa(lp1120
I1
aI1
aI0
aa(lp1121
I1
aI1
aI1
aa(lp1122
I1
aI1
aI0
aa(lp1123
I0
aI0
aI1
aaa(lp1124
(lp1125
I1
aI1
aI0
aa(lp1126
I0
aI1
aI1
aa(lp1127
I0
aI0
aI0
aa(lp1128
I0
aI1
aI0
aa(lp1129
I0
aI0
aI0
aaa(lp1130
(lp1131
I0
aI1
aI1
aa(lp1132
I1
aI0
aI0
aa(lp1133
I0
aI0
aI0
aa(lp1134
I0
aI0
aI0
aa(lp1135
I0
aI1
aI1
aaa(lp1136
(lp1137
I0
aI0
aI1
aa(lp1138
I0
aI0
aI0
aa(lp1139
I0
aI0
aI0
aa(lp1140
I1
aI0
aI0
aa(lp1141
I0
aI1
aI1
aaa(lp1142
(lp1143
I0
aI1
aI1
aa(lp1144
I1
aI0
aI1
aa(lp1145
I0
aI0
aI0
aa(lp1146
I1
aI0
aI0
aa(lp1147
I0
aI0
aI0
aaa(lp1148
(lp1149
I0
aI1
aI1
aa(lp1150
I0
aI1
aI0
aa(lp1151
I0
aI0
aI1
aa(lp1152
I0
aI1
aI1
aa(lp1153
I0
aI0
aI0
aaa(lp1154
(lp1155
I1
aI0
aI1
aa(lp1156
I0
aI1
aI0
aa(lp1157
I0
aI1
aI0
aa(lp1158
I0
aI1
aI1
aa(lp1159
I0
aI1
aI0
aaa(lp1160
(lp1161
I0
aI1
aI0
aa(lp1162
I0
aI1
aI1
aa(lp1163
I0
aI1
aI0
aa(lp1164
I1
aI0
aI1
aa(lp1165
I0
aI1
aI0
aaa(lp1166
(lp1167
I1
aI1
aI0
aa(lp1168
I0
aI0
aI1
aa(lp1169
I0
aI1
aI1
aa(lp1170
I0
aI1
aI0
aa(lp1171
I1
aI0
aI0
aaa(lp1172
(lp1173
I1
aI1
aI0
aa(lp1174
I1
aI1
aI1
aa(lp1175
I0
aI1
aI0
aa(lp1176
I0
aI0
aI1
aa(lp1177
I1
aI0
aI0
aaa(lp1178
(lp1179
I1
aI0
aI1
aa(lp1180
I1
aI1
aI1
aa(lp1181
I1
aI0
aI0
aa(lp1182
I1
aI0
aI0
aa(lp1183
I0
aI0
aI1
aaa(lp1184
(lp1185
I0
aI1
aI1
aa(lp1186
I0
aI0
aI1
aa(lp1187
I0
aI0
aI1
aa(lp1188
I1
aI1
aI1
aa(lp1189
I1
aI0
aI1
aaa(lp1190
(lp1191
I1
aI0
aI1
aa(lp1192
I0
aI0
aI1
aa(lp1193
I0
aI1
aI0
aa(lp1194
I1
aI1
aI1
aa(lp1195
I0
aI0
aI1
aaa(lp1196
(lp1197
I0
aI0
aI1
aa(lp1198
I1
aI1
aI1
aa(lp1199
I0
aI1
aI0
aa(lp1200
I1
aI0
aI0
aa(lp1201
I1
aI1
aI0
aaa(lp1202
(lp1203
I1
aI1
aI1
aa(lp1204
I0
aI0
aI1
aa(lp1205
I0
aI1
aI0
aa(lp1206
I1
aI1
aI0
aa(lp1207
I0
aI1
aI0
aaa(lp1208
(lp1209
I0
aI1
aI0
aa(lp1210
I1
aI1
aI1
aa(lp1211
I1
aI1
aI0
aa(lp1212
I0
aI0
aI1
aa(lp1213
I1
aI1
aI0
aaa(lp1214
(lp1215
I0
aI0
aI1
aa(lp1216
I1
aI0
aI0
aa(lp1217
I1
aI1
aI1
aa(lp1218
I0
aI1
aI0
aa(lp1219
I0
aI1
aI1
aaa(lp1220
(lp1221
I1
aI0
aI0
aa(lp1222
I1
aI1
aI1
aa(lp1223
I1
aI1
aI1
aa(lp1224
I1
aI0
aI1
aa(lp1225
I0
aI1
aI0
aaa(lp1226
(lp1227
I1
aI1
aI1
aa(lp1228
I1
aI1
aI0
aa(lp1229
I0
aI1
aI0
aa(lp1230
I1
aI1
aI1
aa(lp1231
I1
aI1
aI1
aaa(lp1232
(lp1233
I1
aI1
aI1
aa(lp1234
I1
aI0
aI1
aa(lp1235
I0
aI0
aI1
aa(lp1236
I1
aI1
aI1
aa(lp1237
I1
aI0
aI0
aaa(lp1238
(lp1239
I0
aI0
aI0
aa(lp1240
I0
aI0
aI1
aa(lp1241
I1
aI1
aI1
aa(lp1242
I0
aI1
aI0
aa(lp1243
I1
aI1
aI1
aaa(lp1244
(lp1245
I1
aI1
aI1
aa(lp1246
I0
aI0
aI0
aa(lp1247
I1
aI1
aI1
aa(lp1248
I1
aI1
aI0
aa(lp1249
I0
aI1
aI0
aaa(lp1250
(lp1251
I0
aI1
aI0
aa(lp1252
I0
aI0
aI0
aa(lp1253
I0
aI0
aI1
aa(lp1254
I1
aI0
aI1
aa(lp1255
I1
aI1
aI1
aaa(lp1256
(lp1257
I0
aI0
aI0
aa(lp1258
I0
aI0
aI1
aa(lp1259
I1
aI1
aI1
aa(lp1260
I0
aI1
aI1
aa(lp1261
I0
aI1
aI0
aaa(lp1262
(lp1263
I1
aI0
aI1
aa(lp1264
I0
aI0
aI0
aa(lp1265
I1
aI1
aI1
aa(lp1266
I1
aI0
aI0
aa(lp1267
I0
aI1
aI0
aaa(lp1268
(lp1269
I0
aI0
aI1
aa(lp1270
I1
aI0
aI0
aa(lp1271
I1
aI1
aI1
aa(lp1272
I1
aI0
aI1
aa(lp1273
I0
aI1
aI0
aaa(lp1274
(lp1275
I1
aI1
aI1
aa(lp1276
I0
aI0
aI1
aa(lp1277
I0
aI1
aI1
aa(lp1278
I1
aI0
aI0
aa(lp1279
I0
aI1
aI0
aaa(lp1280
(lp1281
I1
aI0
aI0
aa(lp1282
I1
aI1
aI0
aa(lp1283
I0
aI1
aI1
aa(lp1284
I1
aI1
aI1
aa(lp1285
I0
aI1
aI0
aaa(lp1286
(lp1287
I0
aI0
aI1
aa(lp1288
I0
aI0
aI0
aa(lp1289
I1
aI1
aI0
aa(lp1290
I1
aI0
aI1
aa(lp1291
I1
aI0
aI0
aaa(lp1292
(lp1293
I1
aI0
aI1
aa(lp1294
I0
aI1
aI1
aa(lp1295
I0
aI1
aI0
aa(lp1296
I0
aI0
aI1
aa(lp1297
I0
aI0
aI0
aaa(lp1298
(lp1299
I1
aI0
aI0
aa(lp1300
I0
aI0
aI0
aa(lp1301
I0
aI1
aI1
aa(lp1302
I0
aI1
aI1
aa(lp1303
I1
aI0
aI1
aaa(lp1304
(lp1305
I1
aI1
aI0
aa(lp1306
I0
aI0
aI1
aa(lp1307
I1
aI0
aI0
aa(lp1308
I0
aI1
aI1
aa(lp1309
I0
aI0
aI0
aaa(lp1310
(lp1311
I0
aI0
aI1
aa(lp1312
I1
aI0
aI0
aa(lp1313
I0
aI0
aI0
aa(lp1314
I1
aI0
aI1
aa(lp1315
I0
aI0
aI0
aaa(lp1316
(lp1317
I1
aI0
aI0
aa(lp1318
I0
aI0
aI0
aa(lp1319
I1
aI0
aI0
aa(lp1320
I0
aI1
aI0
aa(lp1321
I1
aI0
aI1
aaa(lp1322
(lp1323
I1
aI1
aI0
aa(lp1324
I0
aI1
aI0
aa(lp1325
I0
aI0
aI0
aa(lp1326
I1
aI1
aI0
aa(lp1327
I1
aI0
aI0
aaa(lp1328
(lp1329
I0
aI1
aI0
aa(lp1330
I0
aI0
aI1
aa(lp1331
I0
aI1
aI1
aa(lp1332
I1
aI1
aI0
aa(lp1333
I0
aI0
aI0
aaa(lp1334
(lp1335
I0
aI0
aI0
aa(lp1336
I1
aI1
aI0
aa(lp1337
I1
aI0
aI0
aa(lp1338
I0
aI1
aI1
aa(lp1339
I0
aI0
aI1
aaa(lp1340
(lp1341
I0
aI1
aI0
aa(lp1342
I1
aI0
aI1
aa(lp1343
I1
aI0
aI1
aa(lp1344
I1
aI0
aI1
aa(lp1345
I1
aI0
aI0
aaa(lp1346
(lp1347
I1
aI1
aI0
aa(lp1348
I1
aI1
aI0
aa(lp1349
I1
aI1
aI0
aa(lp1350
I1
aI0
aI0
aa(lp1351
I1
aI0
aI1
aaa(lp1352
(lp1353
I1
aI1
aI0
aa(lp1354
I1
aI0
aI0
aa(lp1355
I1
aI0
aI1
aa(lp1356
I0
aI1
aI0
aa(lp1357
I1
aI0
aI1
aaa(lp1358
(lp1359
I1
aI0
aI1
aa(lp1360
I1
aI0
aI0
aa(lp1361
I1
aI0
aI1
aa(lp1362
I1
aI1
aI1
aa(lp1363
I1
aI0
aI0
aaa(lp1364
(lp1365
I1
aI0
aI1
aa(lp1366
I1
aI1
aI0
aa(lp1367
I1
aI0
aI0
aa(lp1368
I1
aI1
aI1
aa(lp1369
I1
aI0
aI1
aaa(lp1370
(lp1371
I0
aI1
aI0
aa(lp1372
I1
aI1
aI0
aa(lp1373
I1
aI1
aI1
aa(lp1374
I0
aI0
aI0
aa(lp1375
I0
aI1
aI1
aaa(lp1376
(lp1377
I0
aI1
aI1
aa(lp1378
I1
aI1
aI0
aa(lp1379
I1
aI1
aI1
aa(lp1380
I0
aI0
aI0
aa(lp1381
I0
aI1
aI0
aaa(lp1382
(lp1383
I1
aI1
aI0
aa(lp1384
I1
aI1
aI1
aa(lp1385
I0
aI1
aI1
aa(lp1386
I1
aI0
aI1
aa(lp1387
I0
aI0
aI0
aaa(lp1388
(lp1389
I1
aI1
aI0
aa(lp1390
I1
aI0
aI1
aa(lp1391
I0
aI0
aI1
aa(lp1392
I1
aI1
aI0
aa(lp1393
I0
aI0
aI0
aaaa(lp1394
(I15
I58
S'iii'
p1395
tp1396
a(I13
I56
S'rri1'
p1397
tp1398
a(I24
I94
S'rri3'
p1399
tp1400
a(I8
I22
S'rii3'
p1401
tp1402
a(I1
I2
g1399
tp1403
a(I25
I95
g1401
tp1404
a(I10
I40
S'rrr'
p1405
tp1406
a(I24
I94
S'rri2'
p1407
tp1408
a(I0
I0
g1395
tp1409
a(I18
I71
g1401
tp1410
a(I22
I85
g1395
tp1411
a(I22
I85
S'rii2'
p1412
tp1413
a(I24
I94
g1395
tp1414
a(I27
I98
g1397
tp1415
a(I21
I81
g1399
tp1416
a(I28
I99
g1401
tp1417
a(I28
I99
g1395
tp1418
a(I4
I12
g1405
tp1419
a(I7
I21
g1412
tp1420
a(I6
I18
g1412
tp1421
a(I4
I12
g1412
tp1422
a(I11
I52
g1412
tp1423
a(I25
I95
g1412
tp1424
a(I3
I10
g1405
tp1425
a(I7
I21
g1397
tp1426
a(I23
I87
g1401
tp1427
a(I24
I94
g1401
tp1428
a(I24
I94
g1412
tp1429
a(I8
I22
g1407
tp1430
a(I5
I14
g1401
tp1431
a(I26
I97
g1399
tp1432
a(I20
I80
S'rii1'
p1433
tp1434
a(I21
I81
g1412
tp1435
a(I10
I40
g1407
tp1436
a(I4
I12
g1401
tp1437
a(I27
I98
g1407
tp1438
a(I28
I99
g1433
tp1439
a(I11
I52
g1395
tp1440
a(I21
I81
g1401
tp1441
a(I13
I56
g1399
tp1442
a(I26
I97
g1401
tp1443
a(I6
I18
g1401
tp1444
a(I21
I81
g1433
tp1445
a(I23
I87
g1407
tp1446
a(I6
I18
g1397
tp1447
a(I10
I40
g1399
tp1448
a(I24
I94
g1397
tp1449
a(I20
I80
g1399
tp1450
a(I19
I78
g1395
tp1451
a(I9
I39
g1433
tp1452
a(I2
I5
g1433
tp1453
a(I15
I58
g1397
tp1454
a(I14
I57
g1401
tp1455
a(I3
I10
g1395
tp1456
a(I23
I87
g1412
tp1457
a(I22
I85
g1407
tp1458
a(I8
I22
g1433
tp1459
a(I20
I80
g1405
tp1460
a(I0
I0
g1399
tp1461
a(I8
I22
g1397
tp1462
a(I8
I22
g1395
tp1463
a(I9
I39
g1407
tp1464
a(I26
I97
g1397
tp1465
a(I27
I98
g1412
tp1466
a(I6
I18
g1399
tp1467
a(I19
I78
g1433
tp1468
a(I9
I39
g1399
tp1469
a(I1
I2
g1433
tp1470
a(I12
I53
g1399
tp1471
a(I14
I57
g1395
tp1472
a(I12
I53
g1395
tp1473
a(I7
I21
g1407
tp1474
a(I13
I56
g1412
tp1475
a(I7
I21
g1399
tp1476
a(I26
I97
g1433
tp1477
a(I9
I39
g1412
tp1478
a(I2
I5
g1395
tp1479
a(I18
I71
g1412
tp1480
a(I26
I97
g1412
tp1481
a(I14
I57
g1399
tp1482
a(I13
I56
g1401
tp1483
a(I15
I58
g1412
tp1484
a(I27
I98
g1433
tp1485
a(I22
I85
g1401
tp1486
a(I17
I62
g1397
tp1487
a(I14
I57
g1407
tp1488
a(I13
I56
g1407
tp1489
a(I15
I58
g1407
tp1490
a(I26
I97
g1395
tp1491
a(I0
I0
g1397
tp1492
a(I23
I87
g1405
tp1493
a(I3
I10
g1407
tp1494
a(I2
I5
g1401
tp1495
a(I20
I80
g1395
tp1496
a(I20
I80
g1412
tp1497
a(I0
I0
g1407
tp1498
a(I28
I99
g1407
tp1499
a(I18
I71
g1433
tp1500
a(I19
I78
g1405
tp1501
a(I25
I95
g1405
tp1502
a(I20
I80
g1401
tp1503
a(I26
I97
g1407
tp1504
a(I11
I52
g1401
tp1505
a(I12
I53
g1412
tp1506
a(I11
I52
g1399
tp1507
a(I2
I5
g1405
tp1508
a(I10
I40
g1397
tp1509
a(I9
I39
g1395
tp1510
a(I5
I14
g1407
tp1511
a(I17
I62
g1405
tp1512
a(I3
I10
g1401
tp1513
a(I28
I99
g1397
tp1514
a(I12
I53
g1433
tp1515
a(I17
I62
g1395
tp1516
a(I0
I0
g1412
tp1517
a(I17
I62
g1399
tp1518
a(I18
I71
g1405
tp1519
a(I18
I71
g1399
tp1520
a(I16
I61
g1397
tp1521
a(I9
I39
g1405
tp1522
a(I18
I71
g1397
tp1523
a(I8
I22
g1405
tp1524
a(I16
I61
g1433
tp1525
a(I15
I58
g1433
tp1526
a(I0
I0
g1405
tp1527
a(I25
I95
g1395
tp1528
a(I3
I10
g1433
tp1529
a(I14
I57
g1412
tp1530
a(I19
I78
g1397
tp1531
a(I3
I10
g1397
tp1532
a(I24
I94
g1405
tp1533
a(I4
I12
g1407
tp1534
a(I18
I71
g1395
tp1535
a(I17
I62
g1401
tp1536
a(I27
I98
g1395
tp1537
a(I0
I0
g1433
tp1538
a(I21
I81
g1395
tp1539
a(I10
I40
g1401
tp1540
a(I25
I95
g1397
tp1541
a(I16
I61
g1395
tp1542
a(I5
I14
g1395
tp1543
a(I17
I62
g1433
tp1544
a(I5
I14
g1397
tp1545
a(I9
I39
g1397
tp1546
a(I22
I85
g1397
tp1547
a(I22
I85
g1405
tp1548
a(I1
I2
g1412
tp1549
a(I1
I2
g1397
tp1550
a(I10
I40
g1412
tp1551
a(I26
I97
g1405
tp1552
a(I2
I5
g1399
tp1553
a(I14
I57
g1433
tp1554
a(I15
I58
g1399
tp1555
a(I3
I10
g1399
tp1556
a(I2
I5
g1397
tp1557
a(I13
I56
g1405
tp1558
a(I5
I14
g1412
tp1559
a(I12
I53
g1401
tp1560
a(I16
I61
g1399
tp1561
a(I23
I87
g1397
tp1562
a(I28
I99
g1412
tp1563
a(I1
I2
g1405
tp1564
a(I22
I85
g1433
tp1565
a(I25
I95
g1399
tp1566
a(I6
I18
g1405
tp1567
a(I6
I18
g1395
tp1568
a(I16
I61
g1401
tp1569
a(I28
I99
g1399
tp1570
a(I16
I61
g1405
tp1571
a(I17
I62
g1407
tp1572
a(I6
I18
g1407
tp1573
a(I2
I5
g1412
tp1574
a(I21
I81
g1397
tp1575
a(I18
I71
g1407
tp1576
a(I14
I57
g1405
tp1577
a(I7
I21
g1401
tp1578
a(I12
I53
g1407
tp1579
a(I27
I98
g1401
tp1580
a(I14
I57
g1397
tp1581
a(I10
I40
g1433
tp1582
a(I23
I87
g1399
tp1583
a(I5
I14
g1399
tp1584
a(I2
I5
g1407
tp1585
a(I10
I40
g1395
tp1586
a(I6
I18
g1433
tp1587
a(I15
I58
g1405
tp1588
a(I7
I21
g1405
tp1589
a(I22
I85
g1399
tp1590
a(I21
I81
g1407
tp1591
a(I23
I87
g1433
tp1592
a(I4
I12
g1395
tp1593
a(I13
I56
g1395
tp1594
a(I4
I12
g1399
tp1595
a(I19
I78
g1401
tp1596
a(I12
I53
g1397
tp1597
a(I0
I0
g1401
tp1598
a(I8
I22
g1412
tp1599
a(I20
I80
g1397
tp1600
a(I19
I78
g1412
tp1601
a(I21
I81
g1405
tp1602
a(I13
I56
g1433
tp1603
a(I4
I12
g1397
tp1604
a(I1
I2
g1401
tp1605
a(I4
I12
g1433
tp1606
a(I11
I52
g1405
tp1607
a(I19
I78
g1407
tp1608
a(I7
I21
g1433
tp1609
a(I5
I14
g1405
tp1610
a(I27
I98
g1405
tp1611
a(I25
I95
g1433
tp1612
a(I7
I21
g1395
tp1613
a(I19
I78
g1399
tp1614
a(I24
I94
g1433
tp1615
a(I28
I99
g1405
tp1616
a(I16
I61
g1412
tp1617
a(I17
I62
g1412
tp1618
a(I16
I61
g1407
tp1619
a(I27
I98
g1399
tp1620
a(I1
I2
g1395
tp1621
a(I9
I39
g1401
tp1622
a(I8
I22
g1399
tp1623
a(I15
I58
g1401
tp1624
a(I23
I87
g1395
tp1625
a(I11
I52
g1433
tp1626
a(I11
I52
g1407
tp1627
a(I25
I95
g1407
tp1628
a(I3
I10
g1412
tp1629
a(I1
I2
g1407
tp1630
a(I11
I52
g1397
tp1631
a(I5
I14
g1433
tp1632
a(I12
I53
g1405
tp1633
a(I20
I80
g1407
tp1634
ag1396
ag1398
ag1400
ag1402
ag1403
ag1404
ag1406
ag1408
ag1409
ag1410
ag1411
ag1413
ag1414
ag1415
ag1416
ag1417
ag1418
ag1419
ag1420
ag1421
ag1422
ag1423
ag1424
ag1425
ag1426
ag1427
ag1428
ag1429
ag1430
ag1431
ag1432
ag1434
ag1435
ag1436
ag1437
ag1438
ag1439
ag1440
ag1441
ag1442
ag1443
ag1444
ag1445
ag1446
ag1447
ag1448
ag1449
ag1450
ag1451
ag1452
ag1453
ag1454
ag1455
ag1456
ag1457
ag1458
ag1459
ag1460
ag1461
ag1462
ag1463
ag1464
ag1465
ag1466
ag1467
ag1468
ag1469
ag1470
ag1471
ag1472
ag1473
ag1474
ag1475
ag1476
ag1477
ag1478
ag1479
ag1480
ag1481
ag1482
ag1483
ag1484
ag1485
ag1486
ag1487
ag1488
ag1489
ag1490
ag1491
ag1492
ag1493
ag1494
ag1495
ag1496
ag1497
ag1498
ag1499
ag1500
ag1501
ag1502
ag1503
ag1504
ag1505
ag1506
ag1507
ag1508
ag1509
ag1510
ag1511
ag1512
ag1513
ag1514
ag1515
ag1516
ag1517
ag1518
ag1519
ag1520
ag1521
ag1522
ag1523
ag1524
ag1525
ag1526
ag1527
ag1528
ag1529
ag1530
ag1531
ag1532
ag1533
ag1534
ag1535
ag1536
ag1537
ag1538
ag1539
ag1540
ag1541
ag1542
ag1543
ag1544
ag1545
ag1546
ag1547
ag1548
ag1549
ag1550
ag1551
ag1552
ag1553
ag1554
ag1555
ag1556
ag1557
ag1558
ag1559
ag1560
ag1561
ag1562
ag1563
ag1564
ag1565
ag1566
ag1567
ag1568
ag1569
ag1570
ag1571
ag1572
ag1573
ag1574
ag1575
ag1576
ag1577
ag1578
ag1579
ag1580
ag1581
ag1582
ag1583
ag1584
ag1585
ag1586
ag1587
ag1588
ag1589
ag1590
ag1591
ag1592
ag1593
ag1594
ag1595
ag1596
ag1597
ag1598
ag1599
ag1600
ag1601
ag1602
ag1603
ag1604
ag1605
ag1606
ag1607
ag1608
ag1609
ag1610
ag1611
ag1612
ag1613
ag1614
ag1615
ag1616
ag1617
ag1618
ag1619
ag1620
ag1621
ag1622
ag1623
ag1624
ag1625
ag1626
ag1627
ag1628
ag1629
ag1630
ag1631
ag1632
ag1633
ag1634
aa.